; ModuleID = '36/285.c'
source_filename = "36/285.c"
target datalayout = "e-m:e-p270:32:32-p271:32:32-p272:64:64-i64:64-f80:128-n8:16:32:64-S128"
target triple = "x86_64-pc-linux-gnu"

@.str = private unnamed_addr constant [5 x i8] c"%s%s\00", align 1
@.str.1 = private unnamed_addr constant [4 x i8] c"NO\0A\00", align 1
@.str.2 = private unnamed_addr constant [5 x i8] c"YES\0A\00", align 1

; Function Attrs: noinline nounwind uwtable
define dso_local void @main() #0 {
  %1 = alloca [1000 x i8], align 16
  %2 = alloca [1000 x i8], align 16
  %3 = alloca i32, align 4
  %4 = alloca i32, align 4
  %5 = alloca i32, align 4
  %6 = alloca i32, align 4
  %7 = alloca i32, align 4
  %8 = alloca i32, align 4
  %9 = alloca i32, align 4
  %10 = alloca i32, align 4
  %11 = getelementptr inbounds [1000 x i8], [1000 x i8]* %1, i64 0, i64 0
  %12 = getelementptr inbounds [1000 x i8], [1000 x i8]* %2, i64 0, i64 0
  %13 = call i32 (i8*, ...) @__isoc99_scanf(i8* getelementptr inbounds ([5 x i8], [5 x i8]* @.str, i64 0, i64 0), i8* %11, i8* %12)
  %14 = getelementptr inbounds [1000 x i8], [1000 x i8]* %1, i64 0, i64 0
  %15 = call i64 @strlen(i8* %14) #3
  %16 = trunc i64 %15 to i32
  store i32 %16, i32* %5, align 4
  %17 = getelementptr inbounds [1000 x i8], [1000 x i8]* %2, i64 0, i64 0
  %18 = call i64 @strlen(i8* %17) #3
  %19 = trunc i64 %18 to i32
  store i32 %19, i32* %6, align 4
  %20 = load i32, i32* %5, align 4
  %21 = load i32, i32* %6, align 4
  %22 = icmp ne i32 %20, %21
  br i1 %22, label %23, label %25

23:                                               ; preds = %0
  %24 = call i32 (i8*, ...) @printf(i8* getelementptr inbounds ([4 x i8], [4 x i8]* @.str.1, i64 0, i64 0))
  br label %98

25:                                               ; preds = %0
  store i32 0, i32* %3, align 4
  br label %26

26:                                               ; preds = %88, %25
  %27 = load i32, i32* %3, align 4
  %28 = load i32, i32* %5, align 4
  %29 = icmp slt i32 %27, %28
  br i1 %29, label %30, label %91

30:                                               ; preds = %26
  store i32 0, i32* %4, align 4
  store i32 0, i32* %9, align 4
  br label %31

31:                                               ; preds = %51, %30
  %32 = load i32, i32* %4, align 4
  %33 = load i32, i32* %5, align 4
  %34 = icmp slt i32 %32, %33
  br i1 %34, label %35, label %54

35:                                               ; preds = %31
  %36 = load i32, i32* %3, align 4
  %37 = sext i32 %36 to i64
  %38 = getelementptr inbounds [1000 x i8], [1000 x i8]* %1, i64 0, i64 %37
  %39 = load i8, i8* %38, align 1
  %40 = sext i8 %39 to i32
  %41 = load i32, i32* %4, align 4
  %42 = sext i32 %41 to i64
  %43 = getelementptr inbounds [1000 x i8], [1000 x i8]* %1, i64 0, i64 %42
  %44 = load i8, i8* %43, align 1
  %45 = sext i8 %44 to i32
  %46 = icmp eq i32 %40, %45
  br i1 %46, label %47, label %50

47:                                               ; preds = %35
  %48 = load i32, i32* %9, align 4
  %49 = add nsw i32 %48, 1
  store i32 %49, i32* %9, align 4
  br label %50

50:                                               ; preds = %47, %35
  br label %51

51:                                               ; preds = %50
  %52 = load i32, i32* %4, align 4
  %53 = add nsw i32 %52, 1
  store i32 %53, i32* %4, align 4
  br label %31

54:                                               ; preds = %31
  store i32 0, i32* %7, align 4
  store i32 0, i32* %8, align 4
  br label %55

55:                                               ; preds = %75, %54
  %56 = load i32, i32* %7, align 4
  %57 = load i32, i32* %6, align 4
  %58 = icmp slt i32 %56, %57
  br i1 %58, label %59, label %78

59:                                               ; preds = %55
  %60 = load i32, i32* %3, align 4
  %61 = sext i32 %60 to i64
  %62 = getelementptr inbounds [1000 x i8], [1000 x i8]* %1, i64 0, i64 %61
  %63 = load i8, i8* %62, align 1
  %64 = sext i8 %63 to i32
  %65 = load i32, i32* %7, align 4
  %66 = sext i32 %65 to i64
  %67 = getelementptr inbounds [1000 x i8], [1000 x i8]* %2, i64 0, i64 %66
  %68 = load i8, i8* %67, align 1
  %69 = sext i8 %68 to i32
  %70 = icmp eq i32 %64, %69
  br i1 %70, label %71, label %74

71:                                               ; preds = %59
  %72 = load i32, i32* %8, align 4
  %73 = add nsw i32 %72, 1
  store i32 %73, i32* %8, align 4
  br label %74

74:                                               ; preds = %71, %59
  br label %75

75:                                               ; preds = %74
  %76 = load i32, i32* %7, align 4
  %77 = add nsw i32 %76, 1
  store i32 %77, i32* %7, align 4
  br label %55

78:                                               ; preds = %55
  %79 = load i32, i32* %8, align 4
  %80 = load i32, i32* %9, align 4
  %81 = icmp ne i32 %79, %80
  br i1 %81, label %82, label %84

82:                                               ; preds = %78
  %83 = call i32 (i8*, ...) @printf(i8* getelementptr inbounds ([4 x i8], [4 x i8]* @.str.1, i64 0, i64 0))
  br label %91

84:                                               ; preds = %78
  %85 = load i32, i32* %10, align 4
  %86 = add nsw i32 %85, 1
  store i32 %86, i32* %10, align 4
  br label %87

87:                                               ; preds = %84
  br label %88

88:                                               ; preds = %87
  %89 = load i32, i32* %3, align 4
  %90 = add nsw i32 %89, 1
  store i32 %90, i32* %3, align 4
  br label %26

91:                                               ; preds = %82, %26
  %92 = load i32, i32* %10, align 4
  %93 = load i32, i32* %6, align 4
  %94 = icmp eq i32 %92, %93
  br i1 %94, label %95, label %97

95:                                               ; preds = %91
  %96 = call i32 (i8*, ...) @printf(i8* getelementptr inbounds ([5 x i8], [5 x i8]* @.str.2, i64 0, i64 0))
  br label %97

97:                                               ; preds = %95, %91
  br label %98

98:                                               ; preds = %97, %23
  ret void
}

declare dso_local i32 @__isoc99_scanf(i8*, ...) #1

; Function Attrs: nounwind readonly
declare dso_local i64 @strlen(i8*) #2

declare dso_local i32 @printf(i8*, ...) #1


!llvm.module.flags = !{!0}
!llvm.ident = !{!1}

!0 = !{i32 1, !"wchar_size", i32 4}
!1 = !{!"clang version 10.0.0-4ubuntu1 "}
